target datalayout = "e-m:e-p270:32:32-p271:32:32-p272:64:64-i64:64-i128:128-f80:128-n8:16:32:64-S128"
target triple = "x86_64-pc-linux-gnu"

%struct.eio_obj = type { i32, ptr, ptr, i8 }
%struct.file_write_info = type { ptr, ptr, ptr, i32, i32, i32, i8 }

@.str.32 = private unnamed_addr constant [8 x i8] c"  false\00", align 1
@.str.55 = private unnamed_addr constant [22 x i8] c"Called _file_writable\00", align 1
@.str.56 = private unnamed_addr constant [12 x i8] c"  eof is %s\00", align 1
@.str.57 = private unnamed_addr constant [5 x i8] c"true\00", align 1
@.str.58 = private unnamed_addr constant [6 x i8] c"false\00", align 1

; Function Attrs: nounwind uwtable
define internal zeroext i1 @_file_writable(ptr noundef %0) #0 {
  %2 = alloca i1, align 1
  %3 = alloca ptr, align 8
  %4 = alloca ptr, align 8
  %5 = alloca i32, align 4
  store ptr %0, ptr %3, align 8
  call void @llvm.lifetime.start.p0(i64 8, ptr %4) #9
  %6 = load ptr, ptr %3, align 8
  %7 = getelementptr inbounds nuw %struct.eio_obj, ptr %6, i32 0, i32 1
  %8 = load ptr, ptr %7, align 8
  store ptr %8, ptr %4, align 8
  br label %9

9:                                                ; preds = %1
  br label %10

10:                                               ; preds = %9
  %11 = call i32 @get_log_level()
  %12 = icmp sge i32 %11, 6
  br i1 %12, label %13, label %14

13:                                               ; preds = %10
  call void (i32, ptr, ...) @log_var(i32 noundef 6, ptr noundef @.str.55)
  br label %14

14:                                               ; preds = %13, %10
  br label %15

15:                                               ; preds = %14
  br label %16

16:                                               ; preds = %15
  br label %17

17:                                               ; preds = %16
  br label %18

18:                                               ; preds = %17
  %19 = load ptr, ptr %4, align 8
  %20 = getelementptr inbounds nuw %struct.file_write_info, ptr %19, i32 0, i32 2
  %21 = load ptr, ptr %20, align 8
  %22 = icmp ne ptr %21, null
  br i1 %22, label %29, label %23

23:                                               ; preds = %18
  %24 = load ptr, ptr %4, align 8
  %25 = getelementptr inbounds nuw %struct.file_write_info, ptr %24, i32 0, i32 1
  %26 = load ptr, ptr %25, align 8
  %27 = call i32 @list_is_empty(ptr noundef %26)
  %28 = icmp ne i32 %27, 0
  br i1 %28, label %30, label %29

29:                                               ; preds = %23, %18
  store i1 true, ptr %2, align 1
  store i32 1, ptr %5, align 4
  br label %56

30:                                               ; preds = %23
  br label %31

31:                                               ; preds = %30
  br label %32

32:                                               ; preds = %31
  %33 = call i32 @get_log_level()
  %34 = icmp sge i32 %33, 7
  br i1 %34, label %35, label %36

35:                                               ; preds = %32
  call void (i32, ptr, ...) @log_var(i32 noundef 7, ptr noundef @.str.32)
  br label %36

36:                                               ; preds = %35, %32
  br label %37

37:                                               ; preds = %36
  br label %38

38:                                               ; preds = %37
  br label %39

39:                                               ; preds = %38
  br label %40

40:                                               ; preds = %39
  br label %41

41:                                               ; preds = %40
  br label %42

42:                                               ; preds = %41
  %43 = call i32 @get_log_level()
  %44 = icmp sge i32 %43, 7
  br i1 %44, label %45, label %51

45:                                               ; preds = %42
  %46 = load ptr, ptr %4, align 8
  %47 = getelementptr inbounds nuw %struct.file_write_info, ptr %46, i32 0, i32 6
  %48 = load i8, ptr %47, align 4, !range !8, !noundef !9
  %49 = trunc i8 %48 to i1
  %50 = select i1 %49, ptr @.str.57, ptr @.str.58
  call void (i32, ptr, ...) @log_var(i32 noundef 7, ptr noundef @.str.56, ptr noundef %50)
  br label %51

51:                                               ; preds = %45, %42
  br label %52

52:                                               ; preds = %51
  br label %53

53:                                               ; preds = %52
  br label %54

54:                                               ; preds = %53
  br label %55

55:                                               ; preds = %54
  store i1 false, ptr %2, align 1
  store i32 1, ptr %5, align 4
  br label %56

56:                                               ; preds = %55, %29
  call void @llvm.lifetime.end.p0(i64 8, ptr %4) #9
  %57 = load i1, ptr %2, align 1
  ret i1 %57
}