; Function Attrs: nounwind uwtable
define internal noundef zeroext i1 @_file_writable(ptr noundef readonly captures(none) %0) #0 {
  %2 = getelementptr inbounds nuw i8, ptr %0, i64 8
  %3 = load ptr, ptr %2, align 8
  %4 = tail call i32 @get_log_level() #10
  %5 = icmp sgt i32 %4, 5
  br i1 %5, label %6, label %7

6:                                                ; preds = %1
  tail call void (i32, ptr, ...) @log_var(i32 noundef 6, ptr noundef nonnull @.str.55) #10
  br label %7

7:                                                ; preds = %6, %1
  %8 = getelementptr inbounds nuw i8, ptr %3, i64 16
  %9 = load ptr, ptr %8, align 8
  %.not = icmp eq ptr %9, null
  br i1 %.not, label %10, label %26

10:                                               ; preds = %7
  %11 = getelementptr inbounds nuw i8, ptr %3, i64 8
  %12 = load ptr, ptr %11, align 8
  %13 = tail call i32 @list_is_empty(ptr noundef %12) #10
  %.not5 = icmp eq i32 %13, 0
  br i1 %.not5, label %26, label %14

14:                                               ; preds = %10
  %15 = tail call i32 @get_log_level() #10
  %16 = icmp sgt i32 %15, 6
  br i1 %16, label %17, label %18

17:                                               ; preds = %14
  tail call void (i32, ptr, ...) @log_var(i32 noundef 7, ptr noundef nonnull @.str.32) #10
  br label %18

18:                                               ; preds = %17, %14
  %19 = tail call i32 @get_log_level() #10
  %20 = icmp sgt i32 %19, 6
  br i1 %20, label %21, label %26

21:                                               ; preds = %18
  %22 = getelementptr inbounds nuw i8, ptr %3, i64 36
  %23 = load i8, ptr %22, align 4, !range !8, !noundef !9
  %24 = trunc nuw i8 %23 to i1
  %25 = select i1 %24, ptr @.str.57, ptr @.str.58
  tail call void (i32, ptr, ...) @log_var(i32 noundef 7, ptr noundef nonnull @.str.56, ptr noundef nonnull %25) #10
  br label %26

26:                                               ; preds = %18, %21, %7, %10
  %.0 = phi i1 [ true, %10 ], [ true, %7 ], [ false, %21 ], [ false, %18 ]
  ret i1 %.0
}